(dp0
(S'at'
p1
tp2
F-3.7954891891721947
s(S'24'
p3
tp4
F-5.741399338227508
s(S'omelette'
p5
tp6
F-5.741399338227508
s(S'00'
p7
tp8
F-5.741399338227508
s(S'farm'
p9
tp10
F-5.741399338227508
s(S'waitress'
p11
tp12
F-5.335934230119343
s(S'tea'
p13
tp14
F-5.741399338227508
s(S'diner'
p15
tp16
F-5.335934230119343
s(S'will'
p17
tp18
F-5.048252157667562
s(S'pay'
p19
tp20
F-5.741399338227508
s(S'go'
p21
tp22
F-4.825108606353353
s(S'update'
p23
tp24
F-5.741399338227508
s(S'not'
p25
tp26
F-4.642787049559399
s(S'now'
p27
tp28
F-5.741399338227508
s(S'depressed'
p29
tp30
F-5.741399338227508
s(S'second'
p31
tp32
F-5.741399338227508
s(S'9'
p33
tp34
F-5.741399338227508
s(S'me'
p35
tp36
F-5.048252157667562
s(S'today'
p37
tp38
F-5.335934230119343
s(S'south'
p39
tp40
F-5.741399338227508
s(S'thats'
p41
tp42
F-5.741399338227508
s(S'snacks'
p43
tp44
F-5.741399338227508
s(S'window'
p45
tp46
F-5.741399338227508
s(S'without'
p47
tp48
F-5.741399338227508
s(S'she'
p49
tp50
F-5.741399338227508
s(S'bake'
p51
tp52
F-5.741399338227508
s(S'homemade'
p53
tp54
F-5.335934230119343
s(S'fireplace'
p55
tp56
F-5.741399338227508
s(S'provide'
p57
tp58
F-5.741399338227508
s(S'if'
p59
tp60
F-3.9496398689994527
s(S'later'
p61
tp62
F-5.741399338227508
s(S'links'
p63
tp64
F-5.741399338227508
s(S'bring'
p65
tp66
F-5.335934230119343
s(S'usually'
p67
tp68
F-5.741399338227508
s(S'been'
p69
tp70
F-5.335934230119343
s(S'wanting'
p71
tp72
F-5.741399338227508
s(S'five'
p73
tp74
F-5.048252157667562
s(S'lots'
p75
tp76
F-5.741399338227508
s(S'adds'
p77
tp78
F-5.741399338227508
s(S'box'
p79
tp80
F-5.741399338227508
s(S'service'
p81
tp82
F-4.355104977107617
s(S'how'
p83
tp84
F-5.741399338227508
s(S'stop'
p85
tp86
F-3.726496317685243
s(S'smoking'
p87
tp88
F-5.741399338227508
s(S'reasonable'
p89
tp90
F-5.741399338227508
s(S'return'
p91
tp92
F-5.335934230119343
s(S'wait'
p93
tp94
F-5.048252157667562
s(S'inside'
p95
tp96
F-5.741399338227508
s(S'forward'
p97
tp98
F-5.741399338227508
s(S'plastic'
p99
tp100
F-5.335934230119343
s(S'perfection'
p101
tp102
F-5.741399338227508
s(S'famous'
p103
tp104
F-5.741399338227508
s(S'myself'
p105
tp106
F-5.741399338227508
s(S'slow'
p107
tp108
F-5.741399338227508
s(S'highway'
p109
tp110
F-5.741399338227508
s(S'spades'
p111
tp112
F-5.741399338227508
s(S'guess'
p113
tp114
F-5.335934230119343
s(S'deserters'
p115
tp116
F-5.741399338227508
s(S'knew'
p117
tp118
F-5.741399338227508
s(S'iced'
p119
tp120
F-5.741399338227508
s(S'health'
p121
tp122
F-5.741399338227508
s(S'whatever'
p123
tp124
F-5.741399338227508
s(S'team'
p125
tp126
F-5.741399338227508
s(S'arm'
p127
tp128
F-5.741399338227508
s(S'shouldnt'
p129
tp130
F-5.741399338227508
s(S'make'
p131
tp132
F-5.335934230119343
s(S'them'
p133
tp134
F-5.741399338227508
s(S'mile'
p135
tp136
F-5.741399338227508
s(S'stops'
p137
tp138
F-5.741399338227508
s(S'charm'
p139
tp140
F-5.048252157667562
s(S'expect'
p141
tp142
F-5.741399338227508
s(S'legendary'
p143
tp144
F-5.741399338227508
s(S'minutes'
p145
tp146
F-5.741399338227508
s(S'police'
p147
tp148
F-5.741399338227508
s(S'leave'
p149
tp150
F-5.335934230119343
s(S'their'
p151
tp152
F-5.048252157667562
s(S'hot'
p153
tp154
F-5.741399338227508
s(S'discover'
p155
tp156
F-5.741399338227508
s(S'suppose'
p157
tp158
F-5.741399338227508
s(S'one'
p159
tp160
F-4.355104977107617
s(S'ive'
p161
tp162
F-5.335934230119343
s(S'why'
p163
tp164
F-5.741399338227508
s(S'whole'
p165
tp166
F-5.741399338227508
s(S'selection'
p167
tp168
F-5.741399338227508
s(S'positive'
p169
tp170
F-5.741399338227508
s(S'star'
p171
tp172
F-5.048252157667562
s(S'bread'
p173
tp174
F-5.335934230119343
s(S'creek'
p175
tp176
F-5.048252157667562
s(S'reeks'
p177
tp178
F-5.741399338227508
s(S'tree'
p179
tp180
F-5.741399338227508
s(S'beats'
p181
tp182
F-5.741399338227508
s(S'impressed'
p183
tp184
F-5.741399338227508
s(S'worked'
p185
tp186
F-5.741399338227508
s(S'about'
p187
tp188
F-4.355104977107617
s(S'50s'
p189
tp190
F-5.741399338227508
s(S'feel'
p191
tp192
F-5.335934230119343
s(S'hope'
p193
tp194
F-5.741399338227508
s(S'cars'
p195
tp196
F-5.741399338227508
s(S'once'
p197
tp198
F-5.741399338227508
s(S'cheap'
p199
tp200
F-5.335934230119343
s(S'space'
p201
tp202
F-5.335934230119343
s(S'live'
p203
tp204
F-5.741399338227508
s(S'polite'
p205
tp206
F-5.741399338227508
s(S'front'
p207
tp208
F-5.335934230119343
s(S'dead'
p209
tp210
F-5.741399338227508
s(S'table'
p211
tp212
F-5.741399338227508
s(S'cafe'
p213
tp214
F-5.741399338227508
s(S'nodded'
p215
tp216
F-5.741399338227508
s(S'managing'
p217
tp218
F-5.741399338227508
s(S'mexican'
p219
tp220
F-5.741399338227508
s(S'booths'
p221
tp222
F-5.741399338227508
s(S'exists'
p223
tp224
F-5.741399338227508
s(S'madison'
p225
tp226
F-5.741399338227508
s(S'get'
p227
tp228
F-4.237321941451234
s(S'understand'
p229
tp230
F-5.741399338227508
s(S'addition'
p231
tp232
F-5.741399338227508
s(S'makes'
p233
tp234
F-5.741399338227508
s(S'serve'
p235
tp236
F-5.741399338227508
s(S'thought'
p237
tp238
F-5.335934230119343
s(S'many'
p239
tp240
F-5.741399338227508
s(S'downhome'
p241
tp242
F-5.741399338227508
s(S'soon'
p243
tp244
F-5.335934230119343
s(S'old'
p245
tp246
F-5.741399338227508
s(S'perfect'
p247
tp248
F-5.048252157667562
s(S'wanted'
p249
tp250
F-5.741399338227508
s(S'under'
p251
tp252
F-5.741399338227508
s(S'bf'
p253
tp254
F-5.741399338227508
s(S'god'
p255
tp256
F-5.741399338227508
s(S'reasonably'
p257
tp258
F-5.741399338227508
s(S'forget'
p259
tp260
F-5.741399338227508
s(S'possibly'
p261
tp262
F-5.741399338227508
s(S'ramp'
p263
tp264
F-5.741399338227508
s(S'meal'
p265
tp266
F-5.335934230119343
s(S'muggy'
p267
tp268
F-5.741399338227508
s(S'steak'
p269
tp270
F-5.335934230119343
s(S'school'
p271
tp272
F-5.741399338227508
s(S'or'
p273
tp274
F-4.48863636973214
s(S'seems'
p275
tp276
F-5.741399338227508
s(S'into'
p277
tp278
F-5.741399338227508
s(S'seriously'
p279
tp280
F-5.741399338227508
s(S'home'
p281
tp282
F-4.642787049559399
s(S'bit'
p283
tp284
F-5.741399338227508
s(S'dated'
p285
tp286
F-5.741399338227508
s(S'small'
p287
tp288
F-5.048252157667562
s(S'rarely'
p289
tp290
F-5.741399338227508
s(S'then'
p291
tp292
F-5.335934230119343
s(S'any'
p293
tp294
F-5.741399338227508
s(S'eclairs'
p295
tp296
F-5.741399338227508
s(S'light'
p297
tp298
F-5.741399338227508
s(S'ordered'
p299
tp300
F-5.741399338227508
s(S'before'
p301
tp302
F-5.741399338227508
s(S'just'
p303
tp304
F-4.355104977107617
s(S'terrible'
p305
tp306
F-5.741399338227508
s(S'same'
p307
tp308
F-5.741399338227508
s(S'skinny'
p309
tp310
F-5.741399338227508
s(S'something'
p311
tp312
F-5.741399338227508
s(S'freakin'
p313
tp314
F-5.741399338227508
s(S'from'
p315
tp316
F-4.825108606353353
s(S'nice'
p317
tp318
F-5.048252157667562
s(S'blt'
p319
tp320
F-5.741399338227508
s(S'joint'
p321
tp322
F-5.741399338227508
s(S'bakery'
p323
tp324
F-4.237321941451234
s(S'mentioned'
p325
tp326
F-5.741399338227508
s(S'but'
p327
tp328
F-3.5441747608912886
s(S'too'
p329
tp330
F-5.741399338227508
s(S'by'
p331
tp332
F-4.48863636973214
s(S'solid'
p333
tp334
F-5.741399338227508
s(S'finest'
p335
tp336
F-5.741399338227508
s(S'menu'
p337
tp338
F-5.741399338227508
s(S'wisconsin'
p339
tp340
F-5.335934230119343
s(S'must'
p341
tp342
F-5.335934230119343
s(S'outing'
p343
tp344
F-5.741399338227508
s(S'plateful'
p345
tp346
F-5.741399338227508
s(S'enjoyable'
p347
tp348
F-5.335934230119343
s(S'cigarette'
p349
tp350
F-5.741399338227508
s(S'51'
p351
tp352
F-5.741399338227508
s(S'experience'
p353
tp354
F-5.335934230119343
s(S'diners'
p355
tp356
F-5.741399338227508
s(S'breads'
p357
tp358
F-5.741399338227508
s(S'commented'
p359
tp360
F-5.741399338227508
s(S'said'
p361
tp362
F-5.741399338227508
s(S'store'
p363
tp364
F-5.741399338227508
s(S'bar'
p365
tp366
F-5.741399338227508
s(S'first'
p367
tp368
F-5.335934230119343
s(S'sit'
p369
tp370
F-5.741399338227508
s(S'only'
p371
tp372
F-5.048252157667562
s(S'based'
p373
tp374
F-5.741399338227508
s(S'lot'
p375
tp376
F-5.741399338227508
s(S'priced'
p377
tp378
F-5.741399338227508
s(S'shop'
p379
tp380
F-4.642787049559399
s(S'warmed'
p381
tp382
F-5.741399338227508
s(S'love'
p383
tp384
F-5.048252157667562
s(S'cream'
p385
tp386
F-5.741399338227508
s(S'yelpers'
p387
tp388
F-5.741399338227508
s(S'youre'
p389
tp390
F-5.741399338227508
s(S'that'
p391
tp392
F-4.355104977107617
s(S'street'
p393
tp394
F-5.741399338227508
s(S'fast'
p395
tp396
F-5.335934230119343
s(S'rather'
p397
tp398
F-5.741399338227508
s(S'besides'
p399
tp400
F-5.741399338227508
s(S'baked'
p401
tp402
F-5.048252157667562
s(S'certainly'
p403
tp404
F-5.741399338227508
s(S'christmas'
p405
tp406
F-5.741399338227508
s(S'more'
p407
tp408
F-5.048252157667562
s(S'beef'
p409
tp410
F-5.741399338227508
s(S'dining'
p411
tp412
F-5.335934230119343
s(S'restaurant'
p413
tp414
F-4.036651245989082
s(S'johnsons'
p415
tp416
F-5.741399338227508
s(S'here'
p417
tp418
F-3.8695971613259164
s(S'flavor'
p419
tp420
F-5.741399338227508
s(S'parkinglotgas'
p421
tp422
F-5.741399338227508
s(S'law'
p423
tp424
F-5.741399338227508
s(S'explain'
p425
tp426
F-5.741399338227508
s(S'book'
p427
tp428
F-5.741399338227508
s(S'greasy'
p429
tp430
F-4.825108606353353
s(S'offensive'
p431
tp432
F-5.741399338227508
s(S'flash'
p433
tp434
F-5.741399338227508
s(S'power'
p435
tp436
F-5.741399338227508
s(S'cover'
p437
tp438
F-5.741399338227508
s(S'give'
p439
tp440
F-5.741399338227508
s(S'journey'
p441
tp442
F-5.741399338227508
s(S'know'
p443
tp444
F-5.335934230119343
s(S'again'
p445
tp446
F-5.335934230119343
s(S'might'
p447
tp448
F-5.741399338227508
s(S'trunk'
p449
tp450
F-5.741399338227508
s(S'yours'
p451
tp452
F-5.741399338227508
s(S'wasnt'
p453
tp454
F-5.741399338227508
s(S'over'
p455
tp456
F-5.048252157667562
s(S'amazing'
p457
tp458
F-5.741399338227508
s(S'ask'
p459
tp460
F-5.741399338227508
s(S'soo'
p461
tp462
F-5.741399338227508
s(S'brunch'
p463
tp464
F-5.335934230119343
s(S'with'
p465
tp466
F-3.7954891891721947
s(S'prarie'
p467
tp468
F-5.741399338227508
s(S'all'
p469
tp470
F-4.48863636973214
s(S'lizards'
p471
tp472
F-5.741399338227508
s(S'sure'
p473
tp474
F-4.642787049559399
s(S'grin'
p475
tp476
F-5.741399338227508
s(S'country'
p477
tp478
F-5.741399338227508
s(S'hours'
p479
tp480
F-5.741399338227508
s(S'had'
p481
tp482
F-4.355104977107617
s(S'paper'
p483
tp484
F-5.741399338227508
s(S'arrived'
p485
tp486
F-5.741399338227508
s(S'are'
p487
tp488
F-3.601333174731237
sS'*'
p489
F-6.434546518787453
s(S'didnt'
p490
tp491
F-5.335934230119343
s(S'decor'
p492
tp493
F-5.741399338227508
s(S'worth'
p494
tp495
F-5.335934230119343
s(S'others'
p496
tp497
F-5.741399338227508
s(S'packed'
p498
tp499
F-5.741399338227508
s(S'save'
p500
tp501
F-5.741399338227508
s(S'yeah'
p502
tp503
F-5.741399338227508
s(S'other'
p504
tp505
F-5.335934230119343
s(S'walk'
p506
tp507
F-5.741399338227508
s(S'breakfast'
p508
tp509
F-4.825108606353353
s(S'location'
p510
tp511
F-5.335934230119343
s(S'nothing'
p512
tp513
F-4.642787049559399
s(S'did'
p514
tp515
F-5.741399338227508
s(S'best'
p516
tp517
F-5.048252157667562
s(S'okay'
p518
tp519
F-5.741399338227508
s(S'could'
p520
tp521
F-5.048252157667562
s(S'down'
p522
tp523
F-5.335934230119343
s(S'broken'
p524
tp525
F-5.741399338227508
s(S'warm'
p526
tp527
F-5.335934230119343
s(S'found'
p528
tp529
F-5.335934230119343
s(S'plan'
p530
tp531
F-5.741399338227508
s(S'hands'
p532
tp533
F-5.741399338227508
s(S'great'
p534
tp535
F-4.131961425793407
s(S'cafecoffee'
p536
tp537
F-5.741399338227508
s(S'heck'
p538
tp539
F-5.741399338227508
s(S'post'
p540
tp541
F-5.335934230119343
s(S'pretty'
p542
tp543
F-5.048252157667562
s(S'time'
p544
tp545
F-4.825108606353353
s(S'out'
p546
tp547
F-4.237321941451234
s(S'job'
p548
tp549
F-5.741399338227508
s(S'sometime'
p550
tp551
F-5.741399338227508
s(S'check'
p552
tp553
F-5.335934230119343
s(S'new'
p554
tp555
F-5.741399338227508
s(S'hear'
p556
tp557
F-5.741399338227508
s(S'havent'
p558
tp559
F-5.741399338227508
s(S'perfectly'
p560
tp561
F-5.741399338227508
s(S'toasted'
p562
tp563
F-5.741399338227508
s(S'overall'
p564
tp565
F-5.741399338227508
s(S'goods'
p566
tp567
F-4.48863636973214
s(S'everything'
p568
tp569
F-5.048252157667562
s(S'gas'
p570
tp571
F-5.741399338227508
s(S'take'
p572
tp573
F-4.642787049559399
s(S'venture'
p574
tp575
F-5.741399338227508
s(S'eat'
p576
tp577
F-5.335934230119343
s(S'nailed'
p578
tp579
F-5.741399338227508
s(S'fo'
p580
tp581
F-5.741399338227508
s(S'help'
p582
tp583
F-5.741399338227508
s(S'past'
p584
tp585
F-5.741399338227508
s(S'there'
p586
tp587
F-4.48863636973214
s(S'favorite'
p588
tp589
F-5.741399338227508
s(S'friendly'
p590
tp591
F-5.048252157667562
s(S'fresh'
p592
tp593
F-5.741399338227508
s(S'im'
p594
tp595
F-5.048252157667562
s(S'smelling'
p596
tp597
F-5.741399338227508
s(S'options'
p598
tp599
F-5.335934230119343
s(S'absolutely'
p600
tp601
F-5.741399338227508
s(S'big'
p602
tp603
F-5.741399338227508
s(S'last'
p604
tp605
F-5.741399338227508
s(S'horse'
p606
tp607
F-5.741399338227508
s(S'better'
p608
tp609
F-4.642787049559399
s(S'never'
p610
tp611
F-5.335934230119343
s(S'places'
p612
tp613
F-5.335934230119343
s(S'enough'
p614
tp615
F-5.335934230119343
s(S'took'
p616
tp617
F-5.335934230119343
s(S'stuff'
p618
tp619
F-5.741399338227508
s(S'days'
p620
tp621
F-5.048252157667562
s(S'usual'
p622
tp623
F-5.741399338227508
s(S'do'
p624
tp625
F-4.642787049559399
s(S'those'
p626
tp627
F-5.335934230119343
s(S'staff'
p628
tp629
F-5.048252157667562
s(S'ahhh'
p630
tp631
F-5.741399338227508
s(S'remarkable'
p632
tp633
F-5.741399338227508
s(S'normal'
p634
tp635
F-5.741399338227508
s(S'boxes'
p636
tp637
F-5.741399338227508
s(S'cards'
p638
tp639
F-5.335934230119343
s(S'pastry'
p640
tp641
F-5.741399338227508
s(S'refills'
p642
tp643
F-5.741399338227508
s(S'courteous'
p644
tp645
F-5.741399338227508
s(S'what'
p646
tp647
F-4.48863636973214
s(S'road'
p648
tp649
F-5.741399338227508
s(S'sear'
p650
tp651
F-5.741399338227508
s(S'reviews'
p652
tp653
F-5.335934230119343
s(S'honeymoon'
p654
tp655
F-5.741399338227508
s(S'continuing'
p656
tp657
F-5.741399338227508
s(S'confused'
p658
tp659
F-5.741399338227508
s(S'stopped'
p660
tp661
F-5.335934230119343
s(S'postal'
p662
tp663
F-5.335934230119343
s(S'alot'
p664
tp665
F-5.741399338227508
s(S'middletons'
p666
tp667
F-5.741399338227508
s(S'coffee'
p668
tp669
F-4.355104977107617
s(S'appears'
p670
tp671
F-5.741399338227508
s(S'omg'
p672
tp673
F-5.741399338227508
s(S'cooking'
p674
tp675
F-5.335934230119343
s(S'michael'
p676
tp677
F-5.741399338227508
s(S'see'
p678
tp679
F-5.335934230119343
s(S'caferestaurant'
p680
tp681
F-5.741399338227508
s(S'case'
p682
tp683
F-5.741399338227508
s(S'want'
p684
tp685
F-5.741399338227508
s(S'excellent'
p686
tp687
F-5.741399338227508
s(S'side'
p688
tp689
F-5.741399338227508
s(S'empty'
p690
tp691
F-5.741399338227508
s(S'energy'
p692
tp693
F-5.335934230119343
s(S'takes'
p694
tp695
F-5.741399338227508
s(S'ahead'
p696
tp697
F-5.741399338227508
s(S'add'
p698
tp699
F-5.741399338227508
s(S'however'
p700
tp701
F-5.741399338227508
s(S'jane'
p702
tp703
F-5.741399338227508
s(S'your'
p704
tp705
F-4.036651245989082
s(S'weekends'
p706
tp707
F-5.741399338227508
s(S'desserts'
p708
tp709
F-5.335934230119343
s(S'problem'
p710
tp711
F-5.741399338227508
s(S'has'
p712
tp713
F-4.825108606353353
s(S'10'
p714
tp715
F-5.741399338227508
s(S'fastest'
p716
tp717
F-5.741399338227508
s(S'gives'
p718
tp719
F-5.335934230119343
s(S'dive'
p720
tp721
F-5.741399338227508
s(S'her'
p722
tp723
F-5.335934230119343
s(S'near'
p724
tp725
F-5.048252157667562
s(S'veggie'
p726
tp727
F-5.741399338227508
s(S'going'
p728
tp729
F-5.335934230119343
s(S'free'
p730
tp731
F-5.741399338227508
s(S'really'
p732
tp733
F-4.825108606353353
s(S'rating'
p734
tp735
F-5.741399338227508
s(S'recommend'
p736
tp737
F-5.741399338227508
s(S'right'
p738
tp739
F-5.048252157667562
s(S'well'
p740
tp741
F-5.048252157667562
s(S'almost'
p742
tp743
F-5.741399338227508
s(S'friendlyquick'
p744
tp745
F-5.741399338227508
s(S'delicious'
p746
tp747
F-4.825108606353353
s(S'huge'
p748
tp749
F-4.825108606353353
s(S'local'
p750
tp751
F-5.741399338227508
s(S'sounded'
p752
tp753
F-5.741399338227508
s(S'tip'
p754
tp755
F-5.741399338227508
s(S'truckers'
p756
tp757
F-5.741399338227508
s(S'credit'
p758
tp759
F-5.741399338227508
s(S'some'
p760
tp761
F-4.131961425793407
s(S'possible'
p762
tp763
F-5.741399338227508
s(S'guys'
p764
tp765
F-5.741399338227508
s(S'casual'
p766
tp767
F-5.741399338227508
s(S'miss'
p768
tp769
F-5.741399338227508
s(S'finish'
p770
tp771
F-5.741399338227508
s(S'size'
p772
tp773
F-5.335934230119343
s(S'pleasant'
p774
tp775
F-5.741399338227508
s(S'work'
p776
tp777
F-5.335934230119343
s(S'who'
p778
tp779
F-5.741399338227508
s(S'hungry'
p780
tp781
F-5.741399338227508
s(S'hung'
p782
tp783
F-5.741399338227508
s(S'these'
p784
tp785
F-5.741399338227508
s(S'both'
p786
tp787
F-5.741399338227508
s(S'stern'
p788
tp789
F-5.741399338227508
s(S'2010'
p790
tp791
F-5.741399338227508
s(S'pancakes'
p792
tp793
F-5.741399338227508
s(S'made'
p794
tp795
F-5.741399338227508
s(S'buti'
p796
tp797
F-5.741399338227508
s(S'poached'
p798
tp799
F-5.741399338227508
s(S'start'
p800
tp801
F-5.741399338227508
s(S'driver'
p802
tp803
F-5.335934230119343
s(S'dinner'
p804
tp805
F-4.825108606353353
s(S'ill'
p806
tp807
F-5.741399338227508
s(S'attached'
p808
tp809
F-5.335934230119343
s(S'point'
p810
tp811
F-5.335934230119343
s(S'say'
p812
tp813
F-4.825108606353353
s(S'part'
p814
tp815
F-5.741399338227508
s(S'very'
p816
tp817
F-5.741399338227508
s(S'introduced'
p818
tp819
F-5.741399338227508
s(S'most'
p820
tp821
F-5.741399338227508
s(S'ol'
p822
tp823
F-5.741399338227508
s(S'awesome'
p824
tp825
F-5.741399338227508
s(S'looking'
p826
tp827
F-5.741399338227508
s(S'judge'
p828
tp829
F-5.741399338227508
s(S'5'
p830
tp831
F-5.335934230119343
s(S'breakfasts'
p832
tp833
F-5.048252157667562
s(S'mins'
p834
tp835
F-5.741399338227508
s(S'easy'
p836
tp837
F-5.741399338227508
s(S'its'
p838
tp839
F-4.131961425793407
s(S'filthy'
p840
tp841
F-5.741399338227508
s(S'buy'
p842
tp843
F-5.741399338227508
s(S'35'
p844
tp845
F-5.741399338227508
s(S'freaked'
p846
tp847
F-5.741399338227508
s(S'where'
p848
tp849
F-5.335934230119343
s(S'cash'
p850
tp851
F-5.335934230119343
s(S'texture'
p852
tp853
F-5.741399338227508
s(S'surprise'
p854
tp855
F-5.741399338227508
s(S'territory'
p856
tp857
F-5.741399338227508
s(S'plenty'
p858
tp859
F-5.741399338227508
s(S'safely'
p860
tp861
F-5.741399338227508
s(S'food'
p862
tp863
F-3.7954891891721947
s(S'strewn'
p864
tp865
F-5.741399338227508
s(S'sweet'
p866
tp867
F-5.741399338227508
s(S'fooooooooorrrreeeeeeeverrrrrrrrrrr'
p868
tp869
F-5.741399338227508
s(S'older'
p870
tp871
F-5.741399338227508
s(S'station'
p872
tp873
F-5.335934230119343
s(S'place'
p874
tp875
F-4.036651245989082
s(S'sign'
p876
tp877
F-5.741399338227508
s(S'couldnt'
p878
tp879
F-5.741399338227508
s(S'literally'
p880
tp881
F-5.741399338227508
s(S'lunch'
p882
tp883
F-5.335934230119343
s(S'people'
p884
tp885
F-5.335934230119343
s(S'us'
p886
tp887
F-5.741399338227508
s(S'nostalgic'
p888
tp889
F-5.741399338227508
s(S'butter'
p890
tp891
F-5.048252157667562
s(S'coming'
p892
tp893
F-5.741399338227508
s(S'think'
p894
tp895
F-5.048252157667562
s(S'yourself'
p896
tp897
F-5.741399338227508
s(S'theres'
p898
tp899
F-5.741399338227508
s(S'cooked'
p900
tp901
F-5.335934230119343
s(S'while'
p902
tp903
F-5.741399338227508
s(S'phase'
p904
tp905
F-5.741399338227508
s(S'continue'
p906
tp907
F-5.741399338227508
s(S'our'
p908
tp909
F-5.048252157667562
s(S'way'
p910
tp911
F-5.335934230119343
s(S'prepared'
p912
tp913
F-5.741399338227508
s(S'arent'
p914
tp915
F-5.741399338227508
s(S'which'
p916
tp917
F-5.741399338227508
s(S'come'
p918
tp919
F-5.335934230119343
s(S'were'
p920
tp921
F-4.036651245989082
s(S'debris'
p922
tp923
F-5.741399338227508
s(S'trip'
p924
tp925
F-5.335934230119343
s(S'search'
p926
tp927
F-5.741399338227508
s(S'sees'
p928
tp929
F-5.741399338227508
s(S'review'
p930
tp931
F-5.741399338227508
s(S'office'
p932
tp933
F-5.741399338227508
s(S'spoon'
p934
tp935
F-5.741399338227508
s(S'stopping'
p936
tp937
F-5.741399338227508
s(S'pine'
p938
tp939
F-4.355104977107617
s(S'8'
p940
tp941
F-5.741399338227508
s(S'cone'
p942
tp943
F-4.355104977107617
s(S'tell'
p944
tp945
F-5.335934230119343
s(S'theme'
p946
tp947
F-5.741399338227508
s(S'mine'
p948
tp949
F-5.741399338227508
s(S'hitching'
p950
tp951
F-5.741399338227508
s(S'they'
p952
tp953
F-3.661957796547672
s(S'years'
p954
tp955
F-5.741399338227508
s(S'week'
p956
tp957
F-5.741399338227508
s(S'open'
p958
tp959
F-5.741399338227508
s(S'this'
p960
tp961
F-3.490107539621013
s(S'own'
p962
tp963
F-5.741399338227508
s(S'eating'
p964
tp965
F-5.741399338227508
s(S'since'
p966
tp967
F-5.741399338227508
s(S'three'
p968
tp969
F-5.741399338227508
s(S'interior'
p970
tp971
F-5.741399338227508
s(S'have'
p972
tp973
F-4.642787049559399
s(S'tables'
p974
tp975
F-5.741399338227508
s(S'youll'
p976
tp977
F-5.741399338227508
s(S'cleans'
p978
tp979
F-5.741399338227508
s(S'pastries'
p980
tp981
F-5.335934230119343
s(S'doctor'
p982
tp983
F-5.741399338227508
s(S'agreement'
p984
tp985
F-5.741399338227508
s(S'prices'
p986
tp987
F-4.825108606353353
s(S'definitely'
p988
tp989
F-5.048252157667562
s(S'accept'
p990
tp991
F-5.048252157667562
s(S'safety'
p992
tp993
F-5.741399338227508
s(S'folks'
p994
tp995
F-5.741399338227508
s(S'appetzing'
p996
tp997
F-5.741399338227508
s(S'lady'
p998
tp999
F-5.741399338227508
s(S'good'
p1000
tp1001
F-3.8695971613259164
s(S'change'
p1002
tp1003
F-5.741399338227508
s(S'wish'
p1004
tp1005
F-5.741399338227508
s(S'august'
p1006
tp1007
F-5.741399338227508
s(S'try'
p1008
tp1009
F-5.741399338227508
s(S'counter'
p1010
tp1011
F-5.741399338227508
s(S'course'
p1012
tp1013
F-5.741399338227508
s(S'running'
p1014
tp1015
F-5.741399338227508
s(S'general'
p1016
tp1017
F-5.741399338227508
s(S'least'
p1018
tp1019
F-5.335934230119343
s(S'instead'
p1020
tp1021
F-5.741399338227508
s(S'times'
p1022
tp1023
F-4.825108606353353
s(S'salt'
p1024
tp1025
F-5.741399338227508
s(S'allowed'
p1026
tp1027
F-5.741399338227508
s(S'someone'
p1028
tp1029
F-5.741399338227508
s(S'started'
p1030
tp1031
F-5.741399338227508
s(S'scratch'
p1032
tp1033
F-5.741399338227508
s(S'price'
p1034
tp1035
F-5.741399338227508
s(S'like'
p1036
tp1037
F-4.237321941451234
s(S'hard'
p1038
tp1039
F-4.825108606353353
s(S'would'
p1040
tp1041
F-4.825108606353353
s(S'tight'
p1042
tp1043
F-5.741399338227508
s(S'need'
p1044
tp1045
F-5.335934230119343
s(S'fooled'
p1046
tp1047
F-5.741399338227508
s(S'truck'
p1048
tp1049
F-3.8695971613259164
s(S'an'
p1050
tp1051
F-4.825108606353353
s(S'meeting'
p1052
tp1053
F-5.741399338227508
s(S'cozy'
p1054
tp1055
F-5.335934230119343
s(S'things'
p1056
tp1057
F-5.741399338227508
s(S'dont'
p1058
tp1059
F-4.131961425793407
s(S'high'
p1060
tp1061
F-5.741399338227508
s(S'glass'
p1062
tp1063
F-5.741399338227508
s(S'purgatories'
p1064
tp1065
F-5.741399338227508
s(S'next'
p1066
tp1067
F-5.335934230119343
s(S'you'
p1068
tp1069
F-3.5441747608912886
s(S'humorous'
p1070
tp1071
F-5.741399338227508
s(S'kind'
p1072
tp1073
F-5.741399338227508
s(S'off'
p1074
tp1075
F-5.741399338227508
s(S'plentiful'
p1076
tp1077
F-5.741399338227508
s(S'after'
p1078
tp1079
F-5.741399338227508
s(S'thing'
p1080
tp1081
F-5.741399338227508
s(S'area'
p1082
tp1083
F-4.825108606353353
s(S'improved'
p1084
tp1085
F-5.741399338227508
s(S'quite'
p1086
tp1087
F-5.335934230119343
s(S'cases'
p1088
tp1089
F-5.741399338227508
s(S'indulging'
p1090
tp1091
F-5.741399338227508
s(S'night'
p1092
tp1093
F-5.741399338227508
s(S'atmosphere'
p1094
tp1095
F-5.048252157667562
s(S'saturday'
p1096
tp1097
F-5.741399338227508
s(S'onestop'
p1098
tp1099
F-5.741399338227508
s(S'partying'
p1100
tp1101
F-5.741399338227508
s(S'family'
p1102
tp1103
F-5.741399338227508
s(S'quick'
p1104
tp1105
F-5.335934230119343
s(S'morning'
p1106
tp1107
F-5.741399338227508
s(S'several'
p1108
tp1109
F-5.741399338227508
s(S'on'
p1110
tp1111
F-3.601333174731237
s(S'am'
p1112
tp1113
F-5.741399338227508
s(S'sized'
p1114
tp1115
F-5.741399338227508
s(S'random'
p1116
tp1117
F-5.741399338227508
s(S'driving'
p1118
tp1119
F-5.741399338227508
s(S'few'
p1120
tp1121
F-5.741399338227508
s(S'behind'
p1122
tp1123
F-5.741399338227508
s(S'cocoa'
p1124
tp1125
F-5.741399338227508
s(S'back'
p1126
tp1127
F-4.825108606353353
s(S'trying'
p1128
tp1129
F-5.335934230119343
s(S'blend'
p1130
tp1131
F-5.741399338227508
s(S'cant'
p1132
tp1133
F-4.825108606353353
s(S'young'
p1134
tp1135
F-5.741399338227508
s(S'dissapointed'
p1136
tp1137
F-5.741399338227508
s(S'portions'
p1138
tp1139
F-5.741399338227508
s(S'left'
p1140
tp1141
F-5.335934230119343
s(S'spoons'
p1142
tp1143
F-5.741399338227508
s(S'exactly'
p1144
tp1145
F-5.741399338227508
s(S'johnson'
p1146
tp1147
F-5.335934230119343
s(S'twice'
p1148
tp1149
F-5.741399338227508
s(S'chicago'
p1150
tp1151
F-5.741399338227508
s(S'truly'
p1152
tp1153
F-5.741399338227508
s(S'can'
p1154
tp1155
F-4.48863636973214
s(S'sits'
p1156
tp1157
F-5.741399338227508
s(S'plate'
p1158
tp1159
F-5.741399338227508
s(S'eggs'
p1160
tp1161
F-5.335934230119343
s(S'always'
p1162
tp1163
F-5.741399338227508
s(S'when'
p1164
tp1165
F-4.642787049559399
s(S'up'
p1166
tp1167
F-5.335934230119343
s(S'probably'
p1168
tp1169
F-5.741399338227508
s(S'even'
p1170
tp1171
F-5.048252157667562
s(S'also'
p1172
tp1173
F-5.741399338227508
s(S'slightly'
p1174
tp1175
F-5.741399338227508
s(S'little'
p1176
tp1177
F-5.048252157667562
s(S'ate'
p1178
tp1179
F-5.741399338227508
s(S'look'
p1180
tp1181
F-5.335934230119343
s(S'looked'
p1182
tp1183
F-5.741399338227508
s(S'wife'
p1184
tp1185
F-5.335934230119343
s(S'ribsticking'
p1186
tp1187
F-5.741399338227508
s(S'much'
p1188
tp1189
F-5.741399338227508
s(S'patrons'
p1190
tp1191
F-5.741399338227508
s(S'frequenting'
p1192
tp1193
F-5.741399338227508
s(S'saw'
p1194
tp1195
F-5.741399338227508
s(S'we'
p1196
tp1197
F-3.7954891891721947
s(S'than'
p1198
tp1199
F-4.642787049559399
s(S'story'
p1200
tp1201
F-5.741399338227508
s(S'answers'
p1202
tp1203
F-5.741399338227508
s(S'recent'
p1204
tp1205
F-5.048252157667562
s(S'rude'
p1206
tp1207
F-5.741399338227508
s(S'mgr'
p1208
tp1209
F-5.741399338227508
s(S'so'
p1210
tp1211
F-4.825108606353353
s(S'value'
p1212
tp1213
F-5.741399338227508
s(S'fellow'
p1214
tp1215
F-5.741399338227508
s(S'ago'
p1216
tp1217
F-5.741399338227508
s(S'anomaly'
p1218
tp1219
F-5.741399338227508
s(S'asked'
p1220
tp1221
F-5.741399338227508
s(S'conversations'
p1222
tp1223
F-5.741399338227508
s(S'daughter'
p1224
tp1225
F-5.741399338227508
s(S'though'
p1226
tp1227
F-5.741399338227508
s(S'influence'
p1228
tp1229
F-5.741399338227508
s(S'puffs'
p1230
tp1231
F-5.741399338227508
s(S'dine'
p1232
tp1233
F-5.741399338227508
s(S'odd'
p1234
tp1235
F-5.741399338227508
s(S'glad'
p1236
tp1237
F-5.741399338227508
s(S'deeper'
p1238
tp1239
F-5.741399338227508
s(S'visit'
p1240
tp1241
F-5.741399338227508
s(S'because'
p1242
tp1243
F-5.335934230119343
s(S'hangover'
p1244
tp1245
F-5.741399338227508
s.