(dp0
(S'at'
p1
tp2
F-4.726122796405754
s(S'perfect'
p3
tp4
F-5.285738584341177
s(S'dip'
p5
tp6
F-5.573420656792957
s(S'roasted'
p7
tp8
F-5.978885764901122
s(S'may'
p9
tp10
F-5.978885764901122
s(S'will'
p11
tp12
F-5.285738584341177
s(S'bardot'
p13
tp14
F-5.978885764901122
s(S'portion'
p15
tp16
F-5.062595033026967
s(S'dish'
p17
tp18
F-4.880273476233012
s(S'aldente'
p19
tp20
F-5.573420656792957
s(S'corned'
p21
tp22
F-5.978885764901122
s(S'crispy'
p23
tp24
F-4.880273476233012
s(S'pepperamis'
p25
tp26
F-5.978885764901122
s(S'altho'
p27
tp28
F-5.978885764901122
s(S'rock'
p29
tp30
F-5.573420656792957
s(S'hash'
p31
tp32
F-5.285738584341177
s(S'he'
p33
tp34
F-5.285738584341177
s(S'tasted'
p35
tp36
F-4.880273476233012
s(S'what'
p37
tp38
F-5.573420656792957
s(S'second'
p39
tp40
F-5.978885764901122
s(S'vegetable'
p41
tp42
F-5.978885764901122
s(S'vegas'
p43
tp44
F-5.978885764901122
s(S'me'
p45
tp46
F-5.573420656792957
s(S'platter'
p47
tp48
F-5.978885764901122
s(S'adorable'
p49
tp50
F-5.978885764901122
s(S'sourdough'
p51
tp52
F-5.978885764901122
s(S'today'
p53
tp54
F-5.978885764901122
s(S'marsala'
p55
tp56
F-5.573420656792957
s(S'naan'
p57
tp58
F-4.880273476233012
s(S'variety'
p59
tp60
F-5.978885764901122
s(S'meh'
p61
tp62
F-5.978885764901122
s(S'hearty'
p63
tp64
F-5.978885764901122
s(S'lassi'
p65
tp66
F-5.285738584341177
s(S'luster'
p67
tp68
F-5.978885764901122
s(S'she'
p69
tp70
F-5.573420656792957
s(S'peppers'
p71
tp72
F-5.978885764901122
s(S'homemade'
p73
tp74
F-5.573420656792957
s(S'succulent'
p75
tp76
F-5.978885764901122
s(S'chow'
p77
tp78
F-5.978885764901122
s(S'rather'
p79
tp80
F-5.978885764901122
s(S'his'
p81
tp82
F-5.573420656792957
s(S'if'
p83
tp84
F-4.880273476233012
s(S'vinaigrette'
p85
tp86
F-5.978885764901122
s(S'towny'
p87
tp88
F-5.978885764901122
s(S'links'
p89
tp90
F-5.978885764901122
s(S'hooked'
p91
tp92
F-5.978885764901122
s(S'an'
p93
tp94
F-5.573420656792957
s(S'been'
p95
tp96
F-5.062595033026967
s(S'pancake'
p97
tp98
F-5.978885764901122
s(S'cblt'
p99
tp100
F-5.978885764901122
s(S'generous'
p101
tp102
F-5.285738584341177
s(S'breading'
p103
tp104
F-5.978885764901122
s(S'sizzling'
p105
tp106
F-5.978885764901122
s(S'punch'
p107
tp108
F-5.978885764901122
s(S'die'
p109
tp110
F-5.978885764901122
s(S'how'
p111
tp112
F-5.978885764901122
s(S'overall'
p113
tp114
F-5.978885764901122
s(S'piece'
p115
tp116
F-5.573420656792957
s(S'chicken'
p117
tp118
F-3.3761960794567383
s(S'go'
p119
tp120
F-5.285738584341177
s(S'pizzas'
p121
tp122
F-5.978885764901122
s(S'bite'
p123
tp124
F-5.573420656792957
s(S'basic'
p125
tp126
F-5.978885764901122
s(S'gravy'
p127
tp128
F-5.573420656792957
s(S'samosas'
p129
tp130
F-5.978885764901122
s(S'everyone'
p131
tp132
F-5.978885764901122
s(S'dressed'
p133
tp134
F-5.978885764901122
s(S'inside'
p135
tp136
F-5.978885764901122
s(S'afterwards'
p137
tp138
F-5.978885764901122
s(S'appreciate'
p139
tp140
F-5.978885764901122
s(S'classic'
p141
tp142
F-5.573420656792957
s(S'isnt'
p143
tp144
F-5.978885764901122
s(S'forward'
p145
tp146
F-5.978885764901122
s(S'fruit'
p147
tp148
F-5.978885764901122
s(S'gum'
p149
tp150
F-5.978885764901122
s(S'breast'
p151
tp152
F-5.978885764901122
s(S'runner'
p153
tp154
F-5.978885764901122
s(S'worthy'
p155
tp156
F-5.978885764901122
s(S'myself'
p157
tp158
F-5.978885764901122
s(S'meatballs'
p159
tp160
F-5.573420656792957
s(S'red'
p161
tp162
F-4.880273476233012
s(S'tikki'
p163
tp164
F-5.978885764901122
s(S'mein'
p165
tp166
F-5.978885764901122
s(S'breath'
p167
tp168
F-5.978885764901122
s(S'knew'
p169
tp170
F-5.978885764901122
s(S'garlicky'
p171
tp172
F-5.978885764901122
s(S'hummus'
p173
tp174
F-4.726122796405754
s(S'ambiance'
p175
tp176
F-5.978885764901122
s(S'iced'
p177
tp178
F-5.978885764901122
s(S'runny'
p179
tp180
F-5.978885764901122
s(S'off'
p181
tp182
F-5.573420656792957
s(S'requisite'
p183
tp184
F-5.978885764901122
s(S'jungle'
p185
tp186
F-5.978885764901122
s(S'still'
p187
tp188
F-5.978885764901122
s(S'benedict'
p189
tp190
F-5.978885764901122
s(S'sandwich'
p191
tp192
F-5.285738584341177
s(S'says'
p193
tp194
F-5.978885764901122
s(S'rare'
p195
tp196
F-5.978885764901122
s(S'them'
p197
tp198
F-5.062595033026967
s(S'marbled'
p199
tp200
F-5.573420656792957
s(S'mouth'
p201
tp202
F-5.978885764901122
s(S'server'
p203
tp204
F-5.573420656792957
s(S'expect'
p205
tp206
F-5.285738584341177
s(S'they'
p207
tp208
F-4.10708358799953
s(S'mediterranean'
p209
tp210
F-5.978885764901122
s(S'fillers'
p211
tp212
F-5.978885764901122
s(S'conversation'
p213
tp214
F-5.978885764901122
s(S'try'
p215
tp216
F-5.573420656792957
s(S'their'
p217
tp218
F-4.10708358799953
s(S'hot'
p219
tp220
F-5.573420656792957
s(S'wrap'
p221
tp222
F-5.978885764901122
s(S'fat'
p223
tp224
F-5.978885764901122
s(S'eaten'
p225
tp226
F-5.573420656792957
s(S'one'
p227
tp228
F-4.880273476233012
s(S'hold'
p229
tp230
F-5.978885764901122
s(S'ive'
p231
tp232
F-4.726122796405754
s(S'saved'
p233
tp234
F-5.978885764901122
s(S'life'
p235
tp236
F-5.573420656792957
s(S'selection'
p237
tp238
F-5.573420656792957
s(S'special'
p239
tp240
F-4.880273476233012
s(S'bread'
p241
tp242
F-5.285738584341177
s(S'spectacular'
p243
tp244
F-5.978885764901122
s(S'olives'
p245
tp246
F-5.978885764901122
s(S'distant'
p247
tp248
F-5.978885764901122
s(S'wor'
p249
tp250
F-5.573420656792957
s(S'about'
p251
tp252
F-5.573420656792957
s(S'feel'
p253
tp254
F-5.978885764901122
s(S'panner'
p255
tp256
F-5.978885764901122
s(S'hefty'
p257
tp258
F-5.978885764901122
s(S'once'
p259
tp260
F-5.285738584341177
s(S'sentence'
p261
tp262
F-5.978885764901122
s(S'live'
p263
tp264
F-5.978885764901122
s(S'peas'
p265
tp266
F-5.978885764901122
s(S'not'
p267
tp268
F-3.899444223221286
s(S'table'
p269
tp270
F-5.285738584341177
s(S'with'
p271
tp272
F-3.1166848839716534
s(S'consistency'
p273
tp274
F-5.978885764901122
s(S'robins'
p275
tp276
F-5.978885764901122
s(S'lots'
p277
tp278
F-5.285738584341177
s(S'proclaimed'
p279
tp280
F-5.978885764901122
s(S'nuts'
p281
tp282
F-5.978885764901122
s(S'vegetables'
p283
tp284
F-5.573420656792957
s(S'fair'
p285
tp286
F-5.573420656792957
s(S'lettuce'
p287
tp288
F-5.978885764901122
s(S'melty'
p289
tp290
F-5.978885764901122
s(S'get'
p291
tp292
F-5.285738584341177
s(S'completely'
p293
tp294
F-5.978885764901122
s(S'sausages'
p295
tp296
F-5.978885764901122
s(S'kinda'
p297
tp298
F-5.978885764901122
s(S'sure'
p299
tp300
F-5.978885764901122
s(S'lemon'
p301
tp302
F-5.978885764901122
s(S'thought'
p303
tp304
F-5.573420656792957
s(S'concept'
p305
tp306
F-5.978885764901122
s(S'crowded'
p307
tp308
F-5.978885764901122
s(S'plus'
p309
tp310
F-5.978885764901122
s(S'thick'
p311
tp312
F-5.285738584341177
s(S'biryani'
p313
tp314
F-5.978885764901122
s(S'wanted'
p315
tp316
F-5.573420656792957
s(S'wontons'
p317
tp318
F-5.285738584341177
s(S'rib'
p319
tp320
F-5.285738584341177
s(S'chains'
p321
tp322
F-5.978885764901122
s(S'crabcake'
p323
tp324
F-5.978885764901122
s(S'blt'
p325
tp326
F-5.978885764901122
s(S'piccata'
p327
tp328
F-5.573420656792957
s(S'forget'
p329
tp330
F-5.978885764901122
s(S'hair'
p331
tp332
F-5.978885764901122
s(S'place'
p333
tp334
F-5.285738584341177
s(S'us'
p335
tp336
F-5.978885764901122
s(S'burned'
p337
tp338
F-5.978885764901122
s(S'tomato'
p339
tp340
F-5.573420656792957
s(S'steak'
p341
tp342
F-4.880273476233012
s(S'cooks'
p343
tp344
F-5.978885764901122
s(S'or'
p345
tp346
F-5.573420656792957
s(S'truthfully'
p347
tp348
F-5.978885764901122
s(S'into'
p349
tp350
F-5.978885764901122
s(S'share'
p351
tp352
F-5.978885764901122
s(S'damn'
p353
tp354
F-5.978885764901122
s(S'bit'
p355
tp356
F-5.285738584341177
s(S'em'
p357
tp358
F-5.978885764901122
s(S'liked'
p359
tp360
F-5.285738584341177
s(S'any'
p361
tp362
F-5.978885764901122
s(S'eclairs'
p363
tp364
F-5.978885764901122
s(S'croissant'
p365
tp366
F-5.978885764901122
s(S'ordered'
p367
tp368
F-4.592591403781231
s(S'before'
p369
tp370
F-5.978885764901122
s(S'just'
p371
tp372
F-4.10708358799953
s(S'bean'
p373
tp374
F-5.978885764901122
s(S'arrived'
p375
tp376
F-5.978885764901122
s(S'same'
p377
tp378
F-5.978885764901122
s(S'veggies'
p379
tp380
F-5.573420656792957
s(S'toast'
p381
tp382
F-5.062595033026967
s(S'squares'
p383
tp384
F-5.978885764901122
s(S'furthest'
p385
tp386
F-5.978885764901122
s(S'biscuits'
p387
tp388
F-4.880273476233012
s(S'every'
p389
tp390
F-5.573420656792957
s(S'comes'
p391
tp392
F-5.978885764901122
s(S'house'
p393
tp394
F-4.474808368124847
s(S'from'
p395
tp396
F-5.062595033026967
s(S'nice'
p397
tp398
F-5.285738584341177
s(S'no'
p399
tp400
F-5.062595033026967
s(S'plucking'
p401
tp402
F-5.978885764901122
s(S'dishes'
p403
tp404
F-5.978885764901122
s(S'bakery'
p405
tp406
F-5.978885764901122
s(S'pie'
p407
tp408
F-5.978885764901122
s(S'indian'
p409
tp410
F-5.978885764901122
s(S'but'
p411
tp412
F-3.4531571205928664
s(S'croissants'
p413
tp414
F-5.978885764901122
s(S'too'
p415
tp416
F-5.062595033026967
s(S'fare'
p417
tp418
F-5.978885764901122
s(S'chew'
p419
tp420
F-5.978885764901122
s(S'by'
p421
tp422
F-5.573420656792957
s(S'solid'
p423
tp424
F-5.978885764901122
s(S'already'
p425
tp426
F-5.978885764901122
s(S'menu'
p427
tp428
F-5.978885764901122
s(S'must'
p429
tp430
F-5.978885764901122
s(S'most'
p431
tp432
F-5.573420656792957
s(S'boiled'
p433
tp434
F-5.978885764901122
s(S'two'
p435
tp436
F-5.062595033026967
s(S'experience'
p437
tp438
F-5.978885764901122
s(S'highlight'
p439
tp440
F-5.978885764901122
s(S'parmesan'
p441
tp442
F-5.978885764901122
s(S'ever'
p443
tp444
F-5.062595033026967
s(S'noted'
p445
tp446
F-5.978885764901122
s(S'being'
p447
tp448
F-5.573420656792957
s(S'said'
p449
tp450
F-5.978885764901122
s(S'friend'
p451
tp452
F-5.978885764901122
s(S'bar'
p453
tp454
F-5.573420656792957
s(S'first'
p455
tp456
F-5.573420656792957
s(S'anything'
p457
tp458
F-5.978885764901122
s(S'only'
p459
tp460
F-4.726122796405754
s(S'lot'
p461
tp462
F-5.062595033026967
s(S'either'
p463
tp464
F-5.573420656792957
s(S'savory'
p465
tp466
F-5.978885764901122
s(S'crab'
p467
tp468
F-5.285738584341177
s(S'requested'
p469
tp470
F-5.978885764901122
s(S'submerged'
p471
tp472
F-5.978885764901122
s(S'especially'
p473
tp474
F-5.978885764901122
s(S'love'
p475
tp476
F-4.592591403781231
s(S'cream'
p477
tp478
F-5.978885764901122
s(S'stars'
p479
tp480
F-5.573420656792957
s(S'beans'
p481
tp482
F-5.978885764901122
s(S'palace'
p483
tp484
F-5.978885764901122
s(S'glaze'
p485
tp486
F-5.978885764901122
s(S'that'
p487
tp488
F-3.963982744358857
s(S'mac'
p489
tp490
F-5.978885764901122
s(S'long'
p491
tp492
F-5.285738584341177
s(S'plates'
p493
tp494
F-5.978885764901122
s(S'fan'
p495
tp496
F-5.573420656792957
s(S'shrimp'
p497
tp498
F-5.062595033026967
s(S'lamb'
p499
tp500
F-5.978885764901122
s(S'rice'
p501
tp502
F-4.474808368124847
s(S'few'
p503
tp504
F-5.978885764901122
s(S'baked'
p505
tp506
F-5.573420656792957
s(S'pea'
p507
tp508
F-5.978885764901122
s(S'more'
p509
tp510
F-5.978885764901122
s(S'name'
p511
tp512
F-5.978885764901122
s(S'beef'
p513
tp514
F-5.062595033026967
s(S'also'
p515
tp516
F-4.880273476233012
s(S'topping'
p517
tp518
F-5.978885764901122
s(S'desert'
p519
tp520
F-5.573420656792957
s(S'offers'
p521
tp522
F-5.978885764901122
s(S'french'
p523
tp524
F-5.573420656792957
s(S'flavor'
p525
tp526
F-4.726122796405754
s(S'spaghetti'
p527
tp528
F-5.285738584341177
s(S'bits'
p529
tp530
F-5.573420656792957
s(S'greasy'
p531
tp532
F-5.285738584341177
s(S'specialty'
p533
tp534
F-5.978885764901122
s(S'lobster'
p535
tp536
F-4.726122796405754
s(S'know'
p537
tp538
F-5.285738584341177
s(S'faced'
p539
tp540
F-5.978885764901122
s(S'again'
p541
tp542
F-5.285738584341177
s(S'sauce'
p543
tp544
F-4.0329756158458085
s(S'others'
p545
tp546
F-5.978885764901122
s(S'wasnt'
p547
tp548
F-5.285738584341177
s(S'cut'
p549
tp550
F-5.978885764901122
s(S'over'
p551
tp552
F-4.592591403781231
s(S'your'
p553
tp554
F-5.062595033026967
s(S'spinach'
p555
tp556
F-5.978885764901122
s(S'amazing'
p557
tp558
F-4.726122796405754
s(S'stripes'
p559
tp560
F-5.978885764901122
s(S'put'
p561
tp562
F-5.978885764901122
s(S'sour'
p563
tp564
F-5.978885764901122
s(S'cinnamonswirl'
p565
tp566
F-5.978885764901122
s(S'potatoes'
p567
tp568
F-5.285738584341177
s(S'tikka'
p569
tp570
F-5.573420656792957
s(S'each'
p571
tp572
F-5.978885764901122
s(S'all'
p573
tp574
F-5.062595033026967
s(S'added'
p575
tp576
F-5.978885764901122
s(S'tiny'
p577
tp578
F-5.978885764901122
s(S'meaty'
p579
tp580
F-5.978885764901122
s(S'had'
p581
tp582
F-3.145672420844906
s(S'grilled'
p583
tp584
F-5.062595033026967
s(S'paper'
p585
tp586
F-5.978885764901122
s(S'melt'
p587
tp588
F-5.978885764901122
s(S'garlic'
p589
tp590
F-4.592591403781231
s(S'are'
p591
tp592
F-3.899444223221286
sS'*'
p593
F-6.672032945461067
s(S'didnt'
p594
tp595
F-5.573420656792957
s(S'different'
p596
tp597
F-5.978885764901122
s(S'worth'
p598
tp599
F-5.978885764901122
s(S'came'
p600
tp601
F-5.978885764901122
s(S'ratio'
p602
tp603
F-5.978885764901122
s(S'lack'
p604
tp605
F-5.285738584341177
s(S'salmon'
p606
tp607
F-5.978885764901122
s(S'idea'
p608
tp609
F-5.978885764901122
s(S'other'
p610
tp611
F-5.285738584341177
s(S'sexy'
p612
tp613
F-5.978885764901122
s(S'breakfast'
p614
tp615
F-5.285738584341177
s(S'pair'
p616
tp617
F-5.978885764901122
s(S'halibut'
p618
tp619
F-5.978885764901122
s(S'did'
p620
tp621
F-5.978885764901122
s(S'best'
p622
tp623
F-3.899444223221286
s(S'freaking'
p624
tp625
F-5.978885764901122
s(S'could'
p626
tp627
F-5.285738584341177
s(S'mushrooms'
p628
tp629
F-5.978885764901122
s(S'smores'
p630
tp631
F-5.978885764901122
s(S'cilantro'
p632
tp633
F-5.978885764901122
s(S'warm'
p634
tp635
F-5.978885764901122
s(S'nyc'
p636
tp637
F-5.978885764901122
s(S'desire'
p638
tp639
F-5.978885764901122
s(S'salami'
p640
tp641
F-5.978885764901122
s(S'smell'
p642
tp643
F-5.978885764901122
s(S'half'
p644
tp645
F-5.978885764901122
s(S'great'
p646
tp647
F-4.187126295673067
s(S'simple'
p648
tp649
F-5.978885764901122
s(S'arent'
p650
tp651
F-5.978885764901122
s(S'tastierst'
p652
tp653
F-5.978885764901122
s(S'typical'
p654
tp655
F-5.978885764901122
s(S'right'
p656
tp657
F-5.573420656792957
s(S'cheddar'
p658
tp659
F-5.285738584341177
s(S'sated'
p660
tp661
F-5.978885764901122
s(S'lavosh'
p662
tp663
F-5.978885764901122
s(S'proportional'
p664
tp665
F-5.978885764901122
s(S'knots'
p666
tp667
F-5.573420656792957
s(S'pretty'
p668
tp669
F-4.592591403781231
s(S'time'
p670
tp671
F-4.726122796405754
s(S'layer'
p672
tp673
F-5.978885764901122
s(S'come'
p674
tp675
F-5.285738584341177
s(S'lived'
p676
tp677
F-5.978885764901122
s(S'really'
p678
tp679
F-4.726122796405754
s(S'salivating'
p680
tp681
F-5.978885764901122
s(S'served'
p682
tp683
F-5.978885764901122
s(S'disappoint'
p684
tp685
F-5.978885764901122
s(S'service'
p686
tp687
F-5.978885764901122
s(S'guy'
p688
tp689
F-5.978885764901122
s(S'atomic'
p690
tp691
F-5.978885764901122
s(S'closer'
p692
tp693
F-5.978885764901122
s(S'perfectly'
p694
tp695
F-4.474808368124847
s(S'toasted'
p696
tp697
F-5.978885764901122
s(S'very'
p698
tp699
F-4.726122796405754
s(S'end'
p700
tp701
F-5.978885764901122
s(S'light'
p702
tp703
F-5.978885764901122
s(S'everything'
p704
tp705
F-5.978885764901122
s(S'while'
p706
tp707
F-5.062595033026967
s(S'lasagna'
p708
tp709
F-5.062595033026967
s(S'real'
p710
tp711
F-5.573420656792957
s(S'eat'
p712
tp713
F-5.573420656792957
s(S'find'
p714
tp715
F-5.978885764901122
s(S'nailed'
p716
tp717
F-5.978885764901122
s(S'there'
p718
tp719
F-4.726122796405754
s(S'favorite'
p720
tp721
F-5.062595033026967
s(S'fresh'
p722
tp723
F-4.592591403781231
s(S'marias'
p724
tp725
F-5.978885764901122
s(S'silky'
p726
tp727
F-5.978885764901122
s(S'absolutely'
p728
tp729
F-5.978885764901122
s(S'big'
p730
tp731
F-5.978885764901122
s(S'last'
p732
tp733
F-5.573420656792957
s(S'better'
p734
tp735
F-5.062595033026967
s(S'never'
p736
tp737
F-5.978885764901122
s(S'places'
p738
tp739
F-5.978885764901122
s(S'burgers'
p740
tp741
F-5.573420656792957
s(S'flavorful'
p742
tp743
F-4.474808368124847
s(S'cup'
p744
tp745
F-5.978885764901122
s(S'enough'
p746
tp747
F-5.573420656792957
s(S'took'
p748
tp749
F-5.573420656792957
s(S'insane'
p750
tp751
F-5.978885764901122
s(S'do'
p752
tp753
F-5.285738584341177
s(S'id'
p754
tp755
F-5.285738584341177
s(S'those'
p756
tp757
F-5.978885764901122
s(S'soups'
p758
tp759
F-5.978885764901122
s(S'omelets'
p760
tp761
F-5.978885764901122
s(S'staff'
p762
tp763
F-5.978885764901122
s(S'recommend'
p764
tp765
F-5.978885764901122
s(S'crunchy'
p766
tp767
F-5.573420656792957
s(S'pardon'
p768
tp769
F-5.978885764901122
s(S'buffets'
p770
tp771
F-5.978885764901122
s(S'though'
p772
tp773
F-5.978885764901122
s(S'topped'
p774
tp775
F-5.978885764901122
s(S'covered'
p776
tp777
F-5.978885764901122
s(S'mongolian'
p778
tp779
F-5.573420656792957
s(S'where'
p780
tp781
F-5.978885764901122
s(S'dougnuts'
p782
tp783
F-5.978885764901122
s(S'sausage'
p784
tp785
F-5.573420656792957
s(S'bonus'
p786
tp787
F-5.978885764901122
s(S'automatically'
p788
tp789
F-5.978885764901122
s(S'pizza'
p790
tp791
F-4.880273476233012
s(S'yum'
p792
tp793
F-5.978885764901122
s(S'granola'
p794
tp795
F-5.978885764901122
s(S'treat'
p796
tp797
F-5.978885764901122
s(S'lovvee'
p798
tp799
F-5.978885764901122
s(S'coffee'
p800
tp801
F-5.978885764901122
s(S'tray'
p802
tp803
F-5.978885764901122
s(S'n9ne'
p804
tp805
F-5.573420656792957
s(S'freakin'
p806
tp807
F-5.978885764901122
s(S'cooking'
p808
tp809
F-5.978885764901122
s(S'offering'
p810
tp811
F-5.978885764901122
s(S'peeps'
p812
tp813
F-5.978885764901122
s(S'heavily'
p814
tp815
F-5.978885764901122
s(S'see'
p816
tp817
F-5.978885764901122
s(S'ones'
p818
tp819
F-5.978885764901122
s(S'expecting'
p820
tp821
F-5.978885764901122
s(S'rising'
p822
tp823
F-5.978885764901122
s(S'notch'
p824
tp825
F-5.978885764901122
s(S'excellent'
p826
tp827
F-5.573420656792957
s(S'meal'
p828
tp829
F-5.978885764901122
s(S'thin'
p830
tp831
F-5.978885764901122
s(S'glorious'
p832
tp833
F-5.978885764901122
s(S'patty'
p834
tp835
F-5.573420656792957
s(S'however'
p836
tp837
F-5.978885764901122
s(S'eye'
p838
tp839
F-5.285738584341177
s(S'mango'
p840
tp841
F-5.285738584341177
s(S'rich'
p842
tp843
F-5.978885764901122
s(S'parfait'
p844
tp845
F-5.978885764901122
s(S'alluring'
p846
tp847
F-5.978885764901122
s(S'noodles'
p848
tp849
F-5.573420656792957
s(S'stuffed'
p850
tp851
F-5.978885764901122
s(S'cookies'
p852
tp853
F-5.978885764901122
s(S'rolls'
p854
tp855
F-4.880273476233012
s(S'portobello'
p856
tp857
F-5.978885764901122
s(S'plain'
p858
tp859
F-5.573420656792957
s(S'teeth'
p860
tp861
F-5.978885764901122
s(S'pitas'
p862
tp863
F-5.978885764901122
s(S'packs'
p864
tp865
F-5.978885764901122
s(S'pita'
p866
tp867
F-5.285738584341177
s(S'pleased'
p868
tp869
F-5.978885764901122
s(S'has'
p870
tp871
F-5.062595033026967
s(S'loved'
p872
tp873
F-5.573420656792957
s(S'egg'
p874
tp875
F-4.880273476233012
s(S'penne'
p876
tp877
F-5.573420656792957
s(S'style'
p878
tp879
F-5.978885764901122
s(S'nearly'
p880
tp881
F-5.978885764901122
s(S'money'
p882
tp883
F-5.978885764901122
s(S'potato'
p884
tp885
F-5.573420656792957
s(S'takeout'
p886
tp887
F-5.978885764901122
s(S'her'
p888
tp889
F-5.573420656792957
s(S'oh'
p890
tp891
F-5.978885764901122
s(S'near'
p892
tp893
F-5.978885764901122
s(S'veggie'
p894
tp895
F-5.573420656792957
s(S'sweetcorn'
p896
tp897
F-5.978885764901122
s(S'another'
p898
tp899
F-5.978885764901122
s(S'out'
p900
tp901
F-5.285738584341177
s(S'bananahoney'
p902
tp903
F-5.978885764901122
s(S'reason'
p904
tp905
F-5.978885764901122
s(S'6'
p906
tp907
F-5.978885764901122
s(S'draw'
p908
tp909
F-5.978885764901122
s(S'healthy'
p910
tp911
F-5.978885764901122
s(S'because'
p912
tp913
F-5.062595033026967
s(S'kitchen'
p914
tp915
F-5.978885764901122
s(S'apple'
p916
tp917
F-5.573420656792957
s(S'appetizers'
p918
tp919
F-5.978885764901122
s(S'marinara'
p920
tp921
F-5.978885764901122
s(S'well'
p922
tp923
F-5.285738584341177
s(S'gorging'
p924
tp925
F-5.978885764901122
s(S'delicious'
p926
tp927
F-4.187126295673067
s(S'huge'
p928
tp929
F-5.573420656792957
s(S'perfection'
p930
tp931
F-5.978885764901122
s(S'having'
p932
tp933
F-5.978885764901122
s(S'almost'
p934
tp935
F-5.573420656792957
s(S'brigitte'
p936
tp937
F-5.978885764901122
s(S'italian'
p938
tp939
F-5.285738584341177
s(S'some'
p940
tp941
F-4.726122796405754
s(S'mahimahi'
p942
tp943
F-5.978885764901122
s(S'pulaou'
p944
tp945
F-5.978885764901122
s(S'panda'
p946
tp947
F-5.978885764901122
s(S'open'
p948
tp949
F-5.978885764901122
s(S'strips'
p950
tp951
F-5.978885764901122
s(S'island'
p952
tp953
F-5.978885764901122
s(S'size'
p954
tp955
F-5.573420656792957
s(S'work'
p956
tp957
F-5.978885764901122
s(S'garbage'
p958
tp959
F-5.978885764901122
s(S'slight'
p960
tp961
F-5.978885764901122
s(S'dave'
p962
tp963
F-5.978885764901122
s(S'throw'
p964
tp965
F-5.978885764901122
s(S'onion'
p966
tp967
F-5.978885764901122
s(S'these'
p968
tp969
F-5.573420656792957
s(S'both'
p970
tp971
F-5.573420656792957
s(S'duck'
p972
tp973
F-5.978885764901122
s(S'pancakes'
p974
tp975
F-4.880273476233012
s(S'made'
p976
tp977
F-5.285738584341177
s(S'amazed'
p978
tp979
F-5.978885764901122
s(S'start'
p980
tp981
F-5.978885764901122
s(S'dinner'
p982
tp983
F-5.978885764901122
s(S'bland'
p984
tp985
F-5.978885764901122
s(S'son'
p986
tp987
F-5.978885764901122
s(S'side'
p988
tp989
F-5.285738584341177
s(S'calamari'
p990
tp991
F-5.978885764901122
s(S'wing'
p992
tp993
F-5.978885764901122
s(S'meals'
p994
tp995
F-5.978885764901122
s(S'far'
p996
tp997
F-5.978885764901122
s(S'sauces'
p998
tp999
F-5.978885764901122
s(S'decent'
p1000
tp1001
F-5.978885764901122
s(S'savored'
p1002
tp1003
F-5.978885764901122
s(S'brought'
p1004
tp1005
F-5.978885764901122
s(S'cashew'
p1006
tp1007
F-5.978885764901122
s(S'point'
p1008
tp1009
F-5.978885764901122
s(S'say'
p1010
tp1011
F-5.285738584341177
s(S'yogurt'
p1012
tp1013
F-5.978885764901122
s(S'witht'
p1014
tp1015
F-5.978885764901122
s(S'through'
p1016
tp1017
F-5.978885764901122
s(S'pakoras'
p1018
tp1019
F-5.978885764901122
s(S'scramble'
p1020
tp1021
F-5.978885764901122
s(S'quantity'
p1022
tp1023
F-5.978885764901122
s(S'awesome'
p1024
tp1025
F-5.978885764901122
s(S'looking'
p1026
tp1027
F-5.978885764901122
s(S'beer'
p1028
tp1029
F-5.978885764901122
s(S'negative'
p1030
tp1031
F-5.978885764901122
s(S'5'
p1032
tp1033
F-5.285738584341177
s(S'square'
p1034
tp1035
F-5.978885764901122
s(S'breakfasts'
p1036
tp1037
F-5.978885764901122
s(S'aged'
p1038
tp1039
F-5.978885764901122
s(S'overcooked'
p1040
tp1041
F-5.573420656792957
s(S'its'
p1042
tp1043
F-5.062595033026967
s(S'teas'
p1044
tp1045
F-5.978885764901122
s(S'top'
p1046
tp1047
F-5.573420656792957
s(S'tried'
p1048
tp1049
F-5.978885764901122
s(S'korma'
p1050
tp1051
F-5.978885764901122
s(S'bowl'
p1052
tp1053
F-5.978885764901122
s(S'texture'
p1054
tp1055
F-5.573420656792957
s(S'got'
p1056
tp1057
F-5.285738584341177
s(S'pecan'
p1058
tp1059
F-5.978885764901122
s(S'went'
p1060
tp1061
F-5.062595033026967
s(S'plenty'
p1062
tp1063
F-5.978885764901122
s(S'whole'
p1064
tp1065
F-5.978885764901122
s(S'year'
p1066
tp1067
F-5.978885764901122
s(S'use'
p1068
tp1069
F-5.573420656792957
s(S'roll'
p1070
tp1071
F-5.285738584341177
s(S'food'
p1072
tp1073
F-4.880273476233012
s(S'16oz'
p1074
tp1075
F-5.978885764901122
s(S'sweet'
p1076
tp1077
F-5.573420656792957
s(S'sold'
p1078
tp1079
F-5.978885764901122
s(S'unfortunately'
p1080
tp1081
F-5.978885764901122
s(S'buttery'
p1082
tp1083
F-5.573420656792957
s(S'tender'
p1084
tp1085
F-5.978885764901122
s(S'2'
p1086
tp1087
F-5.978885764901122
s(S'collection'
p1088
tp1089
F-5.978885764901122
s(S'pudding'
p1090
tp1091
F-5.573420656792957
s(S'steaks'
p1092
tp1093
F-5.285738584341177
s(S'couldnt'
p1094
tp1095
F-5.978885764901122
s(S'split'
p1096
tp1097
F-5.978885764901122
s(S'who'
p1098
tp1099
F-5.978885764901122
s(S'cheese'
p1100
tp1101
F-4.726122796405754
s(S'onions'
p1102
tp1103
F-5.978885764901122
s(S'pun'
p1104
tp1105
F-5.978885764901122
s(S'malai'
p1106
tp1107
F-5.978885764901122
s(S'youre'
p1108
tp1109
F-5.978885764901122
s(S'atmosphere'
p1110
tp1111
F-5.978885764901122
s(S'lunch'
p1112
tp1113
F-5.285738584341177
s(S'spiced'
p1114
tp1115
F-5.978885764901122
s(S'snap'
p1116
tp1117
F-5.978885764901122
s(S'tasty'
p1118
tp1119
F-4.880273476233012
s(S'actually'
p1120
tp1121
F-5.978885764901122
s(S'butter'
p1122
tp1123
F-5.978885764901122
s(S'syrup'
p1124
tp1125
F-5.978885764901122
s(S'coming'
p1126
tp1127
F-5.573420656792957
s(S'satisfying'
p1128
tp1129
F-5.978885764901122
s(S'think'
p1130
tp1131
F-5.573420656792957
s(S'tomatoes'
p1132
tp1133
F-5.978885764901122
s(S'ok'
p1134
tp1135
F-4.726122796405754
s(S'celery'
p1136
tp1137
F-5.978885764901122
s(S'salad'
p1138
tp1139
F-4.474808368124847
s(S'cooked'
p1140
tp1141
F-4.726122796405754
s(S'nothing'
p1142
tp1143
F-5.573420656792957
s(S'our'
p1144
tp1145
F-5.285738584341177
s(S'prepared'
p1146
tp1147
F-5.573420656792957
s(S'cinnamon'
p1148
tp1149
F-4.880273476233012
s(S'which'
p1150
tp1151
F-4.3694478524670215
s(S'fluffy'
p1152
tp1153
F-5.978885764901122
s(S'were'
p1154
tp1155
F-3.963982744358857
s(S'fantastic'
p1156
tp1157
F-5.978885764901122
s(S'full'
p1158
tp1159
F-5.978885764901122
s(S'review'
p1160
tp1161
F-5.978885764901122
s(S'burger'
p1162
tp1163
F-4.474808368124847
s(S'cajun'
p1164
tp1165
F-5.978885764901122
s(S'express'
p1166
tp1167
F-5.978885764901122
s(S'pine'
p1168
tp1169
F-5.978885764901122
s(S'8'
p1170
tp1171
F-5.573420656792957
s(S'cookie'
p1172
tp1173
F-5.978885764901122
s(S'cat'
p1174
tp1175
F-5.978885764901122
s(S'cone'
p1176
tp1177
F-5.978885764901122
s(S'until'
p1178
tp1179
F-5.978885764901122
s(S'juicy'
p1180
tp1181
F-5.573420656792957
s(S'won'
p1182
tp1183
F-5.285738584341177
s(S'such'
p1184
tp1185
F-5.978885764901122
s(S'caramel'
p1186
tp1187
F-5.978885764901122
s(S'fact'
p1188
tp1189
F-5.978885764901122
s(S'quality'
p1190
tp1191
F-5.573420656792957
s(S'definitely'
p1192
tp1193
F-5.978885764901122
s(S'craving'
p1194
tp1195
F-5.978885764901122
s(S'this'
p1196
tp1197
F-4.274137672662697
s(S'eating'
p1198
tp1199
F-5.573420656792957
s(S'average'
p1200
tp1201
F-5.978885764901122
s(S'salted'
p1202
tp1203
F-5.978885764901122
s(S'cocktails'
p1204
tp1205
F-5.978885764901122
s(S'since'
p1206
tp1207
F-5.978885764901122
s(S'three'
p1208
tp1209
F-5.978885764901122
s(S'against'
p1210
tp1211
F-5.978885764901122
s(S'weeks'
p1212
tp1213
F-5.978885764901122
s(S'raving'
p1214
tp1215
F-5.978885764901122
s(S'have'
p1216
tp1217
F-4.592591403781231
s(S'does'
p1218
tp1219
F-5.978885764901122
s(S'dads'
p1220
tp1221
F-5.978885764901122
s(S'nut'
p1222
tp1223
F-5.978885764901122
s(S'homefries'
p1224
tp1225
F-5.978885764901122
s(S'soup'
p1226
tp1227
F-4.187126295673067
s(S'kicks'
p1228
tp1229
F-5.978885764901122
s(S'points'
p1230
tp1231
F-5.978885764901122
s(S'kofta'
p1232
tp1233
F-5.978885764901122
s(S'hashbrowns'
p1234
tp1235
F-5.062595033026967
s(S'legscustomary'
p1236
tp1237
F-5.978885764901122
s(S'lady'
p1238
tp1239
F-5.978885764901122
s(S'faces'
p1240
tp1241
F-5.978885764901122
s(S'good'
p1242
tp1243
F-3.676300671907076
s(S'tough'
p1244
tp1245
F-5.978885764901122
s(S'sat'
p1246
tp1247
F-5.978885764901122
s(S'large'
p1248
tp1249
F-5.062595033026967
s(S'realdeal'
p1250
tp1251
F-5.978885764901122
s(S'course'
p1252
tp1253
F-5.978885764901122
s(S'mixed'
p1254
tp1255
F-5.978885764901122
s(S'least'
p1256
tp1257
F-5.573420656792957
s(S'browns'
p1258
tp1259
F-5.573420656792957
s(S'keep'
p1260
tp1261
F-5.978885764901122
s(S'meatball'
p1262
tp1263
F-5.573420656792957
s(S'brush'
p1264
tp1265
F-5.978885764901122
s(S'although'
p1266
tp1267
F-5.978885764901122
s(S'bruschetta'
p1268
tp1269
F-5.978885764901122
s(S'normally'
p1270
tp1271
F-5.978885764901122
s(S'creamed'
p1272
tp1273
F-5.573420656792957
s(S'started'
p1274
tp1275
F-5.978885764901122
s(S'bone'
p1276
tp1277
F-5.978885764901122
s(S'eggs'
p1278
tp1279
F-4.880273476233012
s(S'like'
p1280
tp1281
F-4.274137672662697
s(S'wheatrice'
p1282
tp1283
F-5.978885764901122
s(S'would'
p1284
tp1285
F-5.978885764901122
s(S'need'
p1286
tp1287
F-5.978885764901122
s(S'so'
p1288
tp1289
F-4.592591403781231
s(S'pig'
p1290
tp1291
F-5.978885764901122
s(S'cold'
p1292
tp1293
F-5.978885764901122
s(S'soso'
p1294
tp1295
F-5.978885764901122
s(S'impeccable'
p1296
tp1297
F-5.978885764901122
s(S'sprinkle'
p1298
tp1299
F-5.978885764901122
s(S'portioned'
p1300
tp1301
F-5.978885764901122
s(S'suggest'
p1302
tp1303
F-5.978885764901122
s(S'dont'
p1304
tp1305
F-4.880273476233012
s(S'coupled'
p1306
tp1307
F-5.978885764901122
s(S'tandori'
p1308
tp1309
F-5.978885764901122
s(S'overly'
p1310
tp1311
F-5.978885764901122
s(S'basil'
p1312
tp1313
F-5.978885764901122
s(S'angel'
p1314
tp1315
F-5.978885764901122
s(S'next'
p1316
tp1317
F-5.978885764901122
s(S'you'
p1318
tp1319
F-4.3694478524670215
s(S'dry'
p1320
tp1321
F-5.573420656792957
s(S'fried'
p1322
tp1323
F-4.880273476233012
s(S'kind'
p1324
tp1325
F-5.978885764901122
s(S'order'
p1326
tp1327
F-5.285738584341177
s(S'taste'
p1328
tp1329
F-5.062595033026967
s(S'mints'
p1330
tp1331
F-5.978885764901122
s(S'burrito'
p1332
tp1333
F-5.978885764901122
s(S'40oz'
p1334
tp1335
F-5.978885764901122
s(S'anyone'
p1336
tp1337
F-5.978885764901122
s(S'after'
p1338
tp1339
F-5.062595033026967
s(S'delisious'
p1340
tp1341
F-5.978885764901122
s(S'thing'
p1342
tp1343
F-5.285738584341177
s(S'bacon'
p1344
tp1345
F-4.592591403781231
s(S'tasting'
p1346
tp1347
F-5.978885764901122
s(S'down'
p1348
tp1349
F-5.978885764901122
s(S'pasta'
p1350
tp1351
F-5.573420656792957
s(S'melted'
p1352
tp1353
F-5.978885764901122
s(S'fancy'
p1354
tp1355
F-5.978885764901122
s(S'quite'
p1356
tp1357
F-5.573420656792957
s(S'night'
p1358
tp1359
F-5.978885764901122
s(S'madison'
p1360
tp1361
F-5.978885764901122
s(S'adequately'
p1362
tp1363
F-5.978885764901122
s(S'items'
p1364
tp1365
F-5.978885764901122
s(S'flavourless'
p1366
tp1367
F-5.978885764901122
s(S'around'
p1368
tp1369
F-5.978885764901122
s(S'destroyed'
p1370
tp1371
F-5.978885764901122
s(S'thankfully'
p1372
tp1373
F-5.978885764901122
s(S'correctly'
p1374
tp1375
F-5.978885764901122
s(S'small'
p1376
tp1377
F-5.285738584341177
s(S'sides'
p1378
tp1379
F-5.573420656792957
s(S'masala'
p1380
tp1381
F-5.285738584341177
s(S'honest'
p1382
tp1383
F-5.978885764901122
s(S'gets'
p1384
tp1385
F-5.573420656792957
s(S'on'
p1386
tp1387
F-4.187126295673067
s(S'steamy'
p1388
tp1389
F-5.978885764901122
s(S'qualms'
p1390
tp1391
F-5.978885764901122
s(S'balls'
p1392
tp1393
F-5.978885764901122
s(S'yummy'
p1394
tp1395
F-5.573420656792957
s(S'thousand'
p1396
tp1397
F-5.978885764901122
s(S'refreshing'
p1398
tp1399
F-5.978885764901122
s(S'sized'
p1400
tp1401
F-5.978885764901122
s(S'creamy'
p1402
tp1403
F-5.573420656792957
s(S'outside'
p1404
tp1405
F-5.573420656792957
s(S'risotto'
p1406
tp1407
F-5.978885764901122
s(S'amount'
p1408
tp1409
F-5.573420656792957
s(S'back'
p1410
tp1411
F-5.573420656792957
s(S'rave'
p1412
tp1413
F-5.978885764901122
s(S'gonna'
p1414
tp1415
F-5.978885764901122
s(S'version'
p1416
tp1417
F-5.978885764901122
s(S'satisfy'
p1418
tp1419
F-5.978885764901122
s(S'horrible'
p1420
tp1421
F-5.978885764901122
s(S'nicely'
p1422
tp1423
F-5.573420656792957
s(S'serving'
p1424
tp1425
F-5.978885764901122
s(S'cool'
p1426
tp1427
F-5.978885764901122
s(S'environemnt'
p1428
tp1429
F-5.978885764901122
s(S'aioli'
p1430
tp1431
F-5.573420656792957
s(S'cant'
p1432
tp1433
F-5.978885764901122
s(S'saag'
p1434
tp1435
F-5.978885764901122
s(S'tandoori'
p1436
tp1437
F-5.573420656792957
s(S'chick'
p1438
tp1439
F-5.978885764901122
s(S'minus'
p1440
tp1441
F-5.978885764901122
s(S'pepperoni'
p1442
tp1443
F-5.978885764901122
s(S'campfire'
p1444
tp1445
F-5.978885764901122
s(S'left'
p1446
tp1447
F-5.978885764901122
s(S'ham'
p1448
tp1449
F-5.978885764901122
s(S'bleu'
p1450
tp1451
F-5.978885764901122
s(S'twice'
p1452
tp1453
F-5.978885764901122
s(S'tastes'
p1454
tp1455
F-5.978885764901122
s(S'swear'
p1456
tp1457
F-5.978885764901122
s(S'can'
p1458
tp1459
F-5.062595033026967
s(S'plate'
p1460
tp1461
F-5.978885764901122
s(S'crazy'
p1462
tp1463
F-5.978885764901122
s(S'enjoyed'
p1464
tp1465
F-5.573420656792957
s(S'meat'
p1466
tp1467
F-4.274137672662697
s(S'always'
p1468
tp1469
F-4.3694478524670215
s(S'heavy'
p1470
tp1471
F-5.978885764901122
s(S'glamorize'
p1472
tp1473
F-5.978885764901122
s(S'when'
p1474
tp1475
F-5.573420656792957
s(S'dipping'
p1476
tp1477
F-5.978885764901122
s(S'up'
p1478
tp1479
F-5.978885764901122
s(S'including'
p1480
tp1481
F-5.978885764901122
s(S'probably'
p1482
tp1483
F-5.285738584341177
s(S'dragon'
p1484
tp1485
F-5.978885764901122
s(S'even'
p1486
tp1487
F-5.573420656792957
s(S'favorites'
p1488
tp1489
F-5.978885764901122
s(S'entire'
p1490
tp1491
F-5.978885764901122
s(S'curry'
p1492
tp1493
F-5.978885764901122
s(S'little'
p1494
tp1495
F-5.062595033026967
s(S'sausagey'
p1496
tp1497
F-5.978885764901122
s(S'corn'
p1498
tp1499
F-5.978885764901122
s(S'look'
p1500
tp1501
F-5.285738584341177
s(S'impress'
p1502
tp1503
F-5.978885764901122
s(S'wife'
p1504
tp1505
F-5.573420656792957
s(S'filling'
p1506
tp1507
F-5.573420656792957
s(S'falafel'
p1508
tp1509
F-5.978885764901122
s(S'much'
p1510
tp1511
F-5.978885764901122
s(S'mashed'
p1512
tp1513
F-5.978885764901122
s(S'dad'
p1514
tp1515
F-5.978885764901122
s(S'among'
p1516
tp1517
F-5.978885764901122
s(S'slab'
p1518
tp1519
F-5.978885764901122
s(S'we'
p1520
tp1521
F-4.726122796405754
s(S'than'
p1522
tp1523
F-4.880273476233012
s(S'here'
p1524
tp1525
F-4.474808368124847
s(S'kid'
p1526
tp1527
F-5.978885764901122
s(S'button'
p1528
tp1529
F-5.978885764901122
s(S'resist'
p1530
tp1531
F-5.978885764901122
s(S'famous'
p1532
tp1533
F-5.978885764901122
s(S'pork'
p1534
tp1535
F-5.978885764901122
s(S'drop'
p1536
tp1537
F-5.573420656792957
s(S'radicchio'
p1538
tp1539
F-5.978885764901122
s(S'salty'
p1540
tp1541
F-5.285738584341177
s(S'should'
p1542
tp1543
F-5.573420656792957
s(S'palak'
p1544
tp1545
F-5.573420656792957
s(S'cheesestrings'
p1546
tp1547
F-5.978885764901122
s(S'ago'
p1548
tp1549
F-5.978885764901122
s(S'doing'
p1550
tp1551
F-5.978885764901122
s(S'flour'
p1552
tp1553
F-5.978885764901122
s(S'daughter'
p1554
tp1555
F-5.573420656792957
s(S'ingredients'
p1556
tp1557
F-5.978885764901122
s(S'paneer'
p1558
tp1559
F-5.573420656792957
s(S'ton'
p1560
tp1561
F-5.285738584341177
s(S'evenly'
p1562
tp1563
F-5.978885764901122
s(S'massive'
p1564
tp1565
F-5.978885764901122
s(S'cake'
p1566
tp1567
F-5.978885764901122
s(S'puffs'
p1568
tp1569
F-5.573420656792957
s(S'super'
p1570
tp1571
F-5.285738584341177
s(S'grease'
p1572
tp1573
F-5.573420656792957
s(S'seem'
p1574
tp1575
F-5.978885764901122
s(S'seemed'
p1576
tp1577
F-5.978885764901122
s(S'garbanzo'
p1578
tp1579
F-5.978885764901122
s.